target datalayout = "e-m:e-p270:32:32-p271:32:32-p272:64:64-i64:64-i128:128-f80:128-n8:16:32:64-S128"
target triple = "x86_64-pc-linux-gnu"

%"struct.duckdb_re2::PatchList" = type { i32, i32 }
%"class.duckdb_re2::Compiler" = type <{ %"class.duckdb_re2::Regexp::Walker", ptr, i8, [3 x i8], i32, i8, [7 x i8], %"class.duckdb_re2::PODArray", i32, i32, i64, %"class.std::unordered_map", %"struct.duckdb_re2::Frag", i32, [4 x i8] }>
%"class.duckdb_re2::Regexp::Walker" = type { ptr, %"class.std::stack", i8, i32 }
%"class.std::stack" = type { %"class.std::deque" }
%"class.std::deque" = type { %"class.std::_Deque_base" }
%"class.std::_Deque_base" = type { %"struct.std::_Deque_base<duckdb_re2::WalkState<duckdb_re2::Frag>, std::allocator<duckdb_re2::WalkState<duckdb_re2::Frag>>>::_Deque_impl" }
%"struct.std::_Deque_base<duckdb_re2::WalkState<duckdb_re2::Frag>, std::allocator<duckdb_re2::WalkState<duckdb_re2::Frag>>>::_Deque_impl" = type { %"struct.std::_Deque_base<duckdb_re2::WalkState<duckdb_re2::Frag>, std::allocator<duckdb_re2::WalkState<duckdb_re2::Frag>>>::_Deque_impl_data" }
%"struct.std::_Deque_base<duckdb_re2::WalkState<duckdb_re2::Frag>, std::allocator<duckdb_re2::WalkState<duckdb_re2::Frag>>>::_Deque_impl_data" = type { ptr, i64, %"struct.std::_Deque_iterator", %"struct.std::_Deque_iterator" }
%"struct.std::_Deque_iterator" = type { ptr, ptr, ptr, ptr }
%"class.duckdb_re2::PODArray" = type { %"class.std::unique_ptr" }
%"class.std::unique_ptr" = type { %"struct.std::__uniq_ptr_data" }
%"struct.std::__uniq_ptr_data" = type { %"class.std::__uniq_ptr_impl" }
%"class.std::__uniq_ptr_impl" = type { %"class.std::tuple" }
%"class.std::tuple" = type { %"struct.std::_Tuple_impl" }
%"struct.std::_Tuple_impl" = type { %"struct.std::_Tuple_impl.0", %"struct.std::_Head_base.1" }
%"struct.std::_Tuple_impl.0" = type { %"struct.std::_Head_base" }
%"struct.std::_Head_base" = type { %"struct.duckdb_re2::PODArray<duckdb_re2::Prog::Inst>::Deleter" }
%"struct.duckdb_re2::PODArray<duckdb_re2::Prog::Inst>::Deleter" = type { i32 }
%"struct.std::_Head_base.1" = type { ptr }
%"class.std::unordered_map" = type { %"class.std::_Hashtable" }
%"class.std::_Hashtable" = type { ptr, i64, %"struct.std::__detail::_Hash_node_base", i64, %"struct.std::__detail::_Prime_rehash_policy", ptr }
%"struct.std::__detail::_Hash_node_base" = type { ptr }
%"struct.std::__detail::_Prime_rehash_policy" = type { float, i64 }
%"struct.duckdb_re2::Frag" = type <{ i32, %"struct.duckdb_re2::PatchList", i8, [3 x i8] }>
%"struct.std::__detail::_Hash_node_value_base" = type { %"struct.__gnu_cxx::__aligned_buffer" }
%"struct.__gnu_cxx::__aligned_buffer" = type { %"union.std::aligned_storage<16, 8>::type" }
%"union.std::aligned_storage<16, 8>::type" = type { [16 x i8] }

@_ZN10duckdb_re2L14kNullPatchListE = internal constant %"struct.duckdb_re2::PatchList" zeroinitializer, align 4

; Function Attrs: mustprogress nounwind uwtable
define linkonce_odr void @_ZNSt15__new_allocatorINSt8__detail10_Hash_nodeISt4pairIKmiELb0EEEE10deallocateEPS5_m(ptr noundef nonnull align 1 dereferenceable(1) %0, ptr noundef %1, i64 noundef %2) #1 comdat align 2 {
  %4 = alloca ptr, align 8
  %5 = alloca ptr, align 8
  %6 = alloca i64, align 8
  store ptr %0, ptr %4, align 8, !tbaa !220
  store ptr %1, ptr %5, align 8, !tbaa !223
  store i64 %2, ptr %6, align 8, !tbaa !84
  %7 = load ptr, ptr %5, align 8, !tbaa !223
  call void @_ZdlPv(ptr noundef %7) #20
  ret void
}

; Function Attrs: mustprogress nounwind uwtable
define linkonce_odr hidden noundef ptr @_ZN9__gnu_cxx16__aligned_bufferISt4pairIKmiEE7_M_addrEv(ptr noundef nonnull align 8 dereferenceable(16) %0) #1 comdat align 2 {
  %2 = alloca ptr, align 8
  store ptr %0, ptr %2, align 8, !tbaa !229
  %3 = load ptr, ptr %2, align 8
  %4 = getelementptr inbounds nuw %"struct.__gnu_cxx::__aligned_buffer", ptr %3, i32 0, i32 0
  ret ptr %4
}

; Function Attrs: mustprogress uwtable
define linkonce_odr void @_ZNSt16allocator_traitsISaINSt8__detail10_Hash_nodeISt4pairIKmiELb0EEEEE10deallocateERS6_PS5_m(ptr noundef nonnull align 1 dereferenceable(1) %0, ptr noundef %1, i64 noundef %2) #0 comdat align 2 {
  %4 = alloca ptr, align 8
  %5 = alloca ptr, align 8
  %6 = alloca i64, align 8
  store ptr %0, ptr %4, align 8, !tbaa !218
  store ptr %1, ptr %5, align 8, !tbaa !223
  store i64 %2, ptr %6, align 8, !tbaa !84
  %7 = load ptr, ptr %4, align 8, !tbaa !218
  %8 = load ptr, ptr %5, align 8, !tbaa !223
  %9 = load i64, ptr %6, align 8, !tbaa !84
  call void @_ZNSt15__new_allocatorINSt8__detail10_Hash_nodeISt4pairIKmiELb0EEEE10deallocateEPS5_m(ptr noundef nonnull align 1 dereferenceable(1) %7, ptr noundef %8, i64 noundef %9)
  ret void
}

; Function Attrs: mustprogress nounwind uwtable
define linkonce_odr noundef ptr @_ZNSt19__ptr_traits_ptr_toIPNSt8__detail10_Hash_nodeISt4pairIKmiELb0EEES5_Lb0EE10pointer_toERS5_(ptr noundef nonnull align 8 dereferenceable(24) %0) #1 comdat align 2 {
  %2 = alloca ptr, align 8
  store ptr %0, ptr %2, align 8, !tbaa !223
  %3 = load ptr, ptr %2, align 8, !tbaa !223
  ret ptr %3
}

; Function Attrs: mustprogress nounwind uwtable
define linkonce_odr void @_ZNSt15__new_allocatorINSt8__detail10_Hash_nodeISt4pairIKmiELb0EEEE7destroyIS4_EEvPT_(ptr noundef nonnull align 1 dereferenceable(1) %0, ptr noundef %1) #1 comdat align 2 {
  %3 = alloca ptr, align 8
  %4 = alloca ptr, align 8
  store ptr %0, ptr %3, align 8, !tbaa !220
  store ptr %1, ptr %4, align 8, !tbaa !225
  ret void
}

; Function Attrs: mustprogress nounwind uwtable
define linkonce_odr hidden noundef ptr @_ZN9__gnu_cxx16__aligned_bufferISt4pairIKmiEE6_M_ptrEv(ptr noundef nonnull align 8 dereferenceable(16) %0) #1 comdat align 2 {
  %2 = alloca ptr, align 8
  store ptr %0, ptr %2, align 8, !tbaa !229
  %3 = load ptr, ptr %2, align 8
  %4 = call noundef ptr @_ZN9__gnu_cxx16__aligned_bufferISt4pairIKmiEE7_M_addrEv(ptr noundef nonnull align 8 dereferenceable(16) %3) #18
  ret ptr %4
}

; Function Attrs: mustprogress nounwind uwtable
define linkonce_odr noundef nonnull align 1 dereferenceable(1) ptr @_ZNSt8__detail21_Hashtable_ebo_helperILi0ESaINS_10_Hash_nodeISt4pairIKmiELb0EEEELb1EE6_M_getEv(ptr noundef nonnull align 1 dereferenceable(1) %0) #1 comdat align 2 {
  %2 = alloca ptr, align 8
  store ptr %0, ptr %2, align 8, !tbaa !216
  %3 = load ptr, ptr %2, align 8
  ret ptr %3
}

; Function Attrs: mustprogress uwtable
define linkonce_odr void @_ZNSt8__detail16_Hashtable_allocISaINS_10_Hash_nodeISt4pairIKmiELb0EEEEE22_M_deallocate_node_ptrEPS5_(ptr noundef nonnull align 1 dereferenceable(1) %0, ptr noundef %1) #0 comdat align 2 {
  %3 = alloca ptr, align 8
  %4 = alloca ptr, align 8
  %5 = alloca ptr, align 8
  store ptr %0, ptr %3, align 8, !tbaa !201
  store ptr %1, ptr %4, align 8, !tbaa !223
  %6 = load ptr, ptr %3, align 8
  call void @llvm.lifetime.start.p0(i64 8, ptr %5) #18
  %7 = load ptr, ptr %4, align 8, !tbaa !223
  %8 = call noundef ptr @_ZNSt19__ptr_traits_ptr_toIPNSt8__detail10_Hash_nodeISt4pairIKmiELb0EEES5_Lb0EE10pointer_toERS5_(ptr noundef nonnull align 8 dereferenceable(24) %7) #18
  store ptr %8, ptr %5, align 8, !tbaa !223
  %9 = call noundef nonnull align 1 dereferenceable(1) ptr @_ZNSt8__detail16_Hashtable_allocISaINS_10_Hash_nodeISt4pairIKmiELb0EEEEE17_M_node_allocatorEv(ptr noundef nonnull align 1 dereferenceable(1) %6)
  %10 = load ptr, ptr %5, align 8, !tbaa !223
  call void @_ZNSt16allocator_traitsISaINSt8__detail10_Hash_nodeISt4pairIKmiELb0EEEEE10deallocateERS6_PS5_m(ptr noundef nonnull align 1 dereferenceable(1) %9, ptr noundef %10, i64 noundef 1)
  call void @llvm.lifetime.end.p0(i64 8, ptr %5) #18
  ret void
}

; Function Attrs: mustprogress nounwind uwtable
define linkonce_odr void @_ZNSt16allocator_traitsISaINSt8__detail10_Hash_nodeISt4pairIKmiELb0EEEEE7destroyIS4_EEvRS6_PT_(ptr noundef nonnull align 1 dereferenceable(1) %0, ptr noundef %1) #1 comdat align 2 {
  %3 = alloca ptr, align 8
  %4 = alloca ptr, align 8
  store ptr %0, ptr %3, align 8, !tbaa !218
  store ptr %1, ptr %4, align 8, !tbaa !225
  %5 = load ptr, ptr %3, align 8, !tbaa !218
  %6 = load ptr, ptr %4, align 8, !tbaa !225
  call void @_ZNSt15__new_allocatorINSt8__detail10_Hash_nodeISt4pairIKmiELb0EEEE7destroyIS4_EEvPT_(ptr noundef nonnull align 1 dereferenceable(1) %5, ptr noundef %6) #18
  ret void
}

; Function Attrs: mustprogress nounwind uwtable
define linkonce_odr noundef ptr @_ZNSt8__detail21_Hash_node_value_baseISt4pairIKmiEE9_M_valptrEv(ptr noundef nonnull align 8 dereferenceable(16) %0) #1 comdat align 2 {
  %2 = alloca ptr, align 8
  store ptr %0, ptr %2, align 8, !tbaa !227
  %3 = load ptr, ptr %2, align 8
  %4 = getelementptr inbounds nuw %"struct.std::__detail::_Hash_node_value_base", ptr %3, i32 0, i32 0
  %5 = call noundef ptr @_ZN9__gnu_cxx16__aligned_bufferISt4pairIKmiEE6_M_ptrEv(ptr noundef nonnull align 8 dereferenceable(16) %4) #18
  ret ptr %5
}

; Function Attrs: mustprogress uwtable
define linkonce_odr noundef nonnull align 1 dereferenceable(1) ptr @_ZNSt8__detail16_Hashtable_allocISaINS_10_Hash_nodeISt4pairIKmiELb0EEEEE17_M_node_allocatorEv(ptr noundef nonnull align 1 dereferenceable(1) %0) #0 comdat align 2 {
  %2 = alloca ptr, align 8
  store ptr %0, ptr %2, align 8, !tbaa !201
  %3 = load ptr, ptr %2, align 8
  %4 = call noundef nonnull align 1 dereferenceable(1) ptr @_ZNSt8__detail21_Hashtable_ebo_helperILi0ESaINS_10_Hash_nodeISt4pairIKmiELb0EEEELb1EE6_M_getEv(ptr noundef nonnull align 1 dereferenceable(1) %3)
  ret ptr %4
}

; Function Attrs: mustprogress uwtable
define linkonce_odr void @_ZNSt8__detail16_Hashtable_allocISaINS_10_Hash_nodeISt4pairIKmiELb0EEEEE18_M_deallocate_nodeEPS5_(ptr noundef nonnull align 1 dereferenceable(1) %0, ptr noundef %1) #0 comdat align 2 {
  %3 = alloca ptr, align 8
  %4 = alloca ptr, align 8
  store ptr %0, ptr %3, align 8, !tbaa !201
  store ptr %1, ptr %4, align 8, !tbaa !223
  %5 = load ptr, ptr %3, align 8
  %6 = call noundef nonnull align 1 dereferenceable(1) ptr @_ZNSt8__detail16_Hashtable_allocISaINS_10_Hash_nodeISt4pairIKmiELb0EEEEE17_M_node_allocatorEv(ptr noundef nonnull align 1 dereferenceable(1) %5)
  %7 = load ptr, ptr %4, align 8, !tbaa !223
  %8 = getelementptr inbounds i8, ptr %7, i64 8
  %9 = call noundef ptr @_ZNSt8__detail21_Hash_node_value_baseISt4pairIKmiEE9_M_valptrEv(ptr noundef nonnull align 8 dereferenceable(16) %8) #18
  call void @_ZNSt16allocator_traitsISaINSt8__detail10_Hash_nodeISt4pairIKmiELb0EEEEE7destroyIS4_EEvRS6_PT_(ptr noundef nonnull align 1 dereferenceable(1) %6, ptr noundef %9) #18
  %10 = load ptr, ptr %4, align 8, !tbaa !223
  call void @_ZNSt8__detail16_Hashtable_allocISaINS_10_Hash_nodeISt4pairIKmiELb0EEEEE22_M_deallocate_node_ptrEPS5_(ptr noundef nonnull align 1 dereferenceable(1) %5, ptr noundef %10)
  ret void
}

; Function Attrs: mustprogress nounwind uwtable
define linkonce_odr noundef ptr @_ZNKSt8__detail10_Hash_nodeISt4pairIKmiELb0EE7_M_nextEv(ptr noundef nonnull align 8 dereferenceable(24) %0) #1 comdat align 2 {
  %2 = alloca ptr, align 8
  store ptr %0, ptr %2, align 8, !tbaa !223
  %3 = load ptr, ptr %2, align 8
  %4 = getelementptr inbounds nuw %"struct.std::__detail::_Hash_node_base", ptr %3, i32 0, i32 0
  %5 = load ptr, ptr %4, align 8, !tbaa !204
  ret ptr %5
}

; Function Attrs: noinline noreturn nounwind uwtable
define linkonce_odr hidden void @__clang_call_terminate(ptr noundef %0) #11 comdat {
  %2 = call ptr @__cxa_begin_catch(ptr %0) #18
  call void @_ZSt9terminatev() #22
  unreachable
}

; Function Attrs: mustprogress uwtable
define linkonce_odr void @_ZNSt8__detail16_Hashtable_allocISaINS_10_Hash_nodeISt4pairIKmiELb0EEEEE19_M_deallocate_nodesEPS5_(ptr noundef nonnull align 1 dereferenceable(1) %0, ptr noundef %1) #0 comdat align 2 {
  %3 = alloca ptr, align 8
  %4 = alloca ptr, align 8
  %5 = alloca ptr, align 8
  store ptr %0, ptr %3, align 8, !tbaa !201
  store ptr %1, ptr %4, align 8, !tbaa !223
  %6 = load ptr, ptr %3, align 8
  br label %7

7:                                                ; preds = %10, %2
  %8 = load ptr, ptr %4, align 8, !tbaa !223
  %9 = icmp ne ptr %8, null
  br i1 %9, label %10, label %15

10:                                               ; preds = %7
  call void @llvm.lifetime.start.p0(i64 8, ptr %5) #18
  %11 = load ptr, ptr %4, align 8, !tbaa !223
  store ptr %11, ptr %5, align 8, !tbaa !223
  %12 = load ptr, ptr %4, align 8, !tbaa !223
  %13 = call noundef ptr @_ZNKSt8__detail10_Hash_nodeISt4pairIKmiELb0EE7_M_nextEv(ptr noundef nonnull align 8 dereferenceable(24) %12) #18
  store ptr %13, ptr %4, align 8, !tbaa !223
  %14 = load ptr, ptr %5, align 8, !tbaa !223
  call void @_ZNSt8__detail16_Hashtable_allocISaINS_10_Hash_nodeISt4pairIKmiELb0EEEEE18_M_deallocate_nodeEPS5_(ptr noundef nonnull align 1 dereferenceable(1) %6, ptr noundef %14)
  call void @llvm.lifetime.end.p0(i64 8, ptr %5) #18
  br label %7, !llvm.loop !224

15:                                               ; preds = %7
  ret void
}

; Function Attrs: mustprogress nounwind uwtable
define linkonce_odr noundef ptr @_ZNKSt10_HashtableImSt4pairIKmiESaIS2_ENSt8__detail10_Select1stESt8equal_toImESt4hashImENS4_18_Mod_range_hashingENS4_20_Default_ranged_hashENS4_20_Prime_rehash_policyENS4_17_Hashtable_traitsILb0ELb0ELb1EEEE8_M_beginEv(ptr noundef nonnull align 8 dereferenceable(56) %0) #1 comdat align 2 {
  %2 = alloca ptr, align 8
  store ptr %0, ptr %2, align 8, !tbaa !193
  %3 = load ptr, ptr %2, align 8
  %4 = getelementptr inbounds nuw %"class.std::_Hashtable", ptr %3, i32 0, i32 2
  %5 = getelementptr inbounds nuw %"struct.std::__detail::_Hash_node_base", ptr %4, i32 0, i32 0
  %6 = load ptr, ptr %5, align 8, !tbaa !222
  ret ptr %6
}

; Function Attrs: mustprogress nounwind uwtable
define linkonce_odr void @_ZNSt10_HashtableImSt4pairIKmiESaIS2_ENSt8__detail10_Select1stESt8equal_toImESt4hashImENS4_18_Mod_range_hashingENS4_20_Default_ranged_hashENS4_20_Prime_rehash_policyENS4_17_Hashtable_traitsILb0ELb0ELb1EEEE5clearEv(ptr noundef nonnull align 8 dereferenceable(56) %0) #1 comdat align 2 personality ptr @__gxx_personality_v0 {
  %2 = alloca ptr, align 8
  store ptr %0, ptr %2, align 8, !tbaa !193
  %3 = load ptr, ptr %2, align 8
  %4 = invoke noundef ptr @_ZNKSt10_HashtableImSt4pairIKmiESaIS2_ENSt8__detail10_Select1stESt8equal_toImESt4hashImENS4_18_Mod_range_hashingENS4_20_Default_ranged_hashENS4_20_Prime_rehash_policyENS4_17_Hashtable_traitsILb0ELb0ELb1EEEE8_M_beginEv(ptr noundef nonnull align 8 dereferenceable(56) %3)
          to label %5 unwind label %15

5:                                                ; preds = %1
  invoke void @_ZNSt8__detail16_Hashtable_allocISaINS_10_Hash_nodeISt4pairIKmiELb0EEEEE19_M_deallocate_nodesEPS5_(ptr noundef nonnull align 1 dereferenceable(1) %3, ptr noundef %4)
          to label %6 unwind label %15

6:                                                ; preds = %5
  %7 = getelementptr inbounds nuw %"class.std::_Hashtable", ptr %3, i32 0, i32 0
  %8 = load ptr, ptr %7, align 8, !tbaa !195
  %9 = getelementptr inbounds nuw %"class.std::_Hashtable", ptr %3, i32 0, i32 1
  %10 = load i64, ptr %9, align 8, !tbaa !196
  %11 = mul i64 %10, 8
  call void @llvm.memset.p0.i64(ptr align 8 %8, i8 0, i64 %11, i1 false)
  %12 = getelementptr inbounds nuw %"class.std::_Hashtable", ptr %3, i32 0, i32 3
  store i64 0, ptr %12, align 8, !tbaa !197
  %13 = getelementptr inbounds nuw %"class.std::_Hashtable", ptr %3, i32 0, i32 2
  %14 = getelementptr inbounds nuw %"struct.std::__detail::_Hash_node_base", ptr %13, i32 0, i32 0
  store ptr null, ptr %14, align 8, !tbaa !222
  ret void

15:                                               ; preds = %5, %1
  %16 = landingpad { ptr, i32 }
          catch ptr null
  %17 = extractvalue { ptr, i32 } %16, 0
  call void @__clang_call_terminate(ptr %17) #22
  unreachable
}

; Function Attrs: mustprogress nounwind uwtable
define linkonce_odr void @_ZNSt13unordered_mapImiSt4hashImESt8equal_toImESaISt4pairIKmiEEE5clearEv(ptr noundef nonnull align 8 dereferenceable(56) %0) #1 comdat align 2 {
  %2 = alloca ptr, align 8
  store ptr %0, ptr %2, align 8, !tbaa !59
  %3 = load ptr, ptr %2, align 8
  %4 = getelementptr inbounds nuw %"class.std::unordered_map", ptr %3, i32 0, i32 0
  call void @_ZNSt10_HashtableImSt4pairIKmiESaIS2_ENSt8__detail10_Select1stESt8equal_toImESt4hashImENS4_18_Mod_range_hashingENS4_20_Default_ranged_hashENS4_20_Prime_rehash_policyENS4_17_Hashtable_traitsILb0ELb0ELb1EEEE5clearEv(ptr noundef nonnull align 8 dereferenceable(56) %4) #18
  ret void
}

; Function Attrs: mustprogress nounwind uwtable
define hidden void @_ZN10duckdb_re28Compiler10BeginRangeEv(ptr noundef nonnull align 8 dereferenceable(228) %0) #1 align 2 {
  %2 = alloca ptr, align 8
  store ptr %0, ptr %2, align 8, !tbaa !3
  %3 = load ptr, ptr %2, align 8
  %4 = getelementptr inbounds nuw %"class.duckdb_re2::Compiler", ptr %3, i32 0, i32 11
  call void @_ZNSt13unordered_mapImiSt4hashImESt8equal_toImESaISt4pairIKmiEEE5clearEv(ptr noundef nonnull align 8 dereferenceable(56) %4) #18
  %5 = getelementptr inbounds nuw %"class.duckdb_re2::Compiler", ptr %3, i32 0, i32 12
  %6 = getelementptr inbounds nuw %"struct.duckdb_re2::Frag", ptr %5, i32 0, i32 0
  store i32 0, ptr %6, align 8, !tbaa !83
  %7 = getelementptr inbounds nuw %"class.duckdb_re2::Compiler", ptr %3, i32 0, i32 12
  %8 = getelementptr inbounds nuw %"struct.duckdb_re2::Frag", ptr %7, i32 0, i32 1
  call void @llvm.memcpy.p0.p0.i64(ptr align 4 %8, ptr align 4 @_ZN10duckdb_re2L14kNullPatchListE, i64 8, i1 false), !tbaa.struct !64
  ret void
}