; Function Attrs: mustprogress nounwind uwtable
define hidden void @_ZN10duckdb_re28Compiler10BeginRangeEv(ptr noundef nonnull align 8 captures(none) dereferenceable(228) %0) local_unnamed_addr #6 align 2 personality ptr @__gxx_personality_v0 {
  %2 = getelementptr inbounds nuw i8, ptr %0, i64 168
  %3 = load ptr, ptr %2, align 8, !tbaa !63
  %.not5.i.i.i = icmp eq ptr %3, null
  br i1 %.not5.i.i.i, label %_ZNSt13unordered_mapImiSt4hashImESt8equal_toImESaISt4pairIKmiEEE5clearEv.exit, label %.lr.ph.i.i.i

.lr.ph.i.i.i:                                     ; preds = %1, %.lr.ph.i.i.i
  %.06.i.i.i = phi ptr [ %4, %.lr.ph.i.i.i ], [ %3, %1 ]
  %4 = load ptr, ptr %.06.i.i.i, align 8, !tbaa !64
  tail call void @_ZdlPv(ptr noundef nonnull %.06.i.i.i) #23
  %.not.i.i.i = icmp eq ptr %4, null
  br i1 %.not.i.i.i, label %_ZNSt13unordered_mapImiSt4hashImESt8equal_toImESaISt4pairIKmiEEE5clearEv.exit, label %.lr.ph.i.i.i, !llvm.loop !65

_ZNSt13unordered_mapImiSt4hashImESt8equal_toImESaISt4pairIKmiEEE5clearEv.exit: ; preds = %.lr.ph.i.i.i, %1
  %5 = getelementptr inbounds nuw i8, ptr %0, i64 152
  %6 = load ptr, ptr %5, align 8, !tbaa !21
  %7 = getelementptr inbounds nuw i8, ptr %0, i64 160
  %8 = load i64, ptr %7, align 8, !tbaa !28
  %9 = shl i64 %8, 3
  tail call void @llvm.memset.p0.i64(ptr align 8 %6, i8 0, i64 %9, i1 false)
  tail call void @llvm.memset.p0.i64(ptr noundef nonnull align 8 dereferenceable(16) %2, i8 0, i64 16, i1 false)
  %10 = getelementptr inbounds nuw i8, ptr %0, i64 208
  store i32 0, ptr %10, align 8, !tbaa !79
  %11 = getelementptr inbounds nuw i8, ptr %0, i64 212
  store i64 0, ptr %11, align 4
  ret void
}